target datalayout = "e-m:e-p270:32:32-p271:32:32-p272:64:64-i64:64-i128:128-f80:128-n8:16:32:64-S128"
target triple = "x86_64-pc-linux-gnu"

; Function Attrs: nounwind uwtable
define hidden i32 @mbedtls_aes_crypt_ecb(ptr noundef %0, i32 noundef %1, ptr noundef %2, ptr noundef %3) #0 {
  %5 = alloca i32, align 4
  %6 = alloca ptr, align 8
  %7 = alloca i32, align 4
  %8 = alloca ptr, align 8
  %9 = alloca ptr, align 8
  store ptr %0, ptr %6, align 8, !tbaa !3
  store i32 %1, ptr %7, align 4, !tbaa !12
  store ptr %2, ptr %8, align 8, !tbaa !10
  store ptr %3, ptr %9, align 8, !tbaa !10
  %10 = load i32, ptr %7, align 4, !tbaa !12
  %11 = icmp ne i32 %10, 1
  br i1 %11, label %12, label %16

12:                                               ; preds = %4
  %13 = load i32, ptr %7, align 4, !tbaa !12
  %14 = icmp ne i32 %13, 0
  br i1 %14, label %15, label %16

15:                                               ; preds = %12
  store i32 -33, ptr %5, align 4
  br label %38

16:                                               ; preds = %12, %4
  %17 = call i32 @mbedtls_aesni_has_support(i32 noundef 33554432)
  %18 = icmp ne i32 %17, 0
  br i1 %18, label %19, label %25

19:                                               ; preds = %16
  %20 = load ptr, ptr %6, align 8, !tbaa !3
  %21 = load i32, ptr %7, align 4, !tbaa !12
  %22 = load ptr, ptr %8, align 8, !tbaa !10
  %23 = load ptr, ptr %9, align 8, !tbaa !10
  %24 = call i32 @mbedtls_aesni_crypt_ecb(ptr noundef %20, i32 noundef %21, ptr noundef %22, ptr noundef %23)
  store i32 %24, ptr %5, align 4
  br label %38

25:                                               ; preds = %16
  %26 = load i32, ptr %7, align 4, !tbaa !12
  %27 = icmp eq i32 %26, 0
  br i1 %27, label %28, label %33

28:                                               ; preds = %25
  %29 = load ptr, ptr %6, align 8, !tbaa !3
  %30 = load ptr, ptr %8, align 8, !tbaa !10
  %31 = load ptr, ptr %9, align 8, !tbaa !10
  %32 = call i32 @mbedtls_internal_aes_decrypt(ptr noundef %29, ptr noundef %30, ptr noundef %31)
  store i32 %32, ptr %5, align 4
  br label %38

33:                                               ; preds = %25
  %34 = load ptr, ptr %6, align 8, !tbaa !3
  %35 = load ptr, ptr %8, align 8, !tbaa !10
  %36 = load ptr, ptr %9, align 8, !tbaa !10
  %37 = call i32 @mbedtls_internal_aes_encrypt(ptr noundef %34, ptr noundef %35, ptr noundef %36)
  store i32 %37, ptr %5, align 4
  br label %38

38:                                               ; preds = %33, %28, %19, %15
  %39 = load i32, ptr %5, align 4
  ret i32 %39
}