; Function Attrs: nounwind uwtable
define hidden i32 @mbedtls_aes_crypt_ecb(ptr noundef %0, i32 noundef %1, ptr noundef %2, ptr noundef %3) local_unnamed_addr #2 {
  %or.cond = icmp ugt i32 %1, 1
  br i1 %or.cond, label %15, label %5

5:                                                ; preds = %4
  %6 = tail call i32 @mbedtls_aesni_has_support(i32 noundef 33554432) #11
  %.not = icmp eq i32 %6, 0
  br i1 %.not, label %9, label %7

7:                                                ; preds = %5
  %8 = tail call i32 @mbedtls_aesni_crypt_ecb(ptr noundef %0, i32 noundef %1, ptr noundef %2, ptr noundef %3) #11
  br label %15

9:                                                ; preds = %5
  %10 = icmp eq i32 %1, 0
  br i1 %10, label %11, label %13

11:                                               ; preds = %9
  %12 = tail call i32 @mbedtls_internal_aes_decrypt(ptr noundef %0, ptr noundef %2, ptr noundef %3)
  br label %15

13:                                               ; preds = %9
  %14 = tail call i32 @mbedtls_internal_aes_encrypt(ptr noundef %0, ptr noundef %2, ptr noundef %3)
  br label %15

15:                                               ; preds = %4, %13, %11, %7
  %.0 = phi i32 [ %8, %7 ], [ 0, %11 ], [ 0, %13 ], [ -33, %4 ]
  ret i32 %.0
}